target datalayout = "e-m:e-p270:32:32-p271:32:32-p272:64:64-i64:64-i128:128-f80:128-n8:16:32:64-S128"
target triple = "x86_64-pc-linux-gnu"

%class.cofactor_elim_term_ite = type { ptr, ptr, %class.params_ref }
%class.params_ref = type { ptr }
%"struct.cofactor_elim_term_ite::imp" = type <{ ptr, %class.params_ref, i64, i8, [7 x i8] }>
%"struct.cofactor_elim_term_ite::imp::bottom_up_elim" = type { ptr, ptr, %class.obj_map.26, %class.ref_vector, %class.obj_hashtable, %class.svector.36, %"struct.cofactor_elim_term_ite::imp::cofactor_rw" }
%class.obj_map.26 = type { %class.core_hashtable.27 }
%class.core_hashtable.27 = type <{ ptr, i32, i32, i32, [4 x i8] }>
%class.ref_vector = type { %class.ref_vector_core }
%class.ref_vector_core = type { %class.ref_manager_wrapper, %class.ptr_vector.31 }
%class.ref_manager_wrapper = type { ptr }
%class.ptr_vector.31 = type { %class.vector.32 }
%class.vector.32 = type { ptr }
%class.obj_hashtable = type { %class.core_hashtable.base.35, [4 x i8] }
%class.core_hashtable.base.35 = type <{ ptr, i32, i32, i32 }>
%class.svector.36 = type { %class.vector.37 }
%class.vector.37 = type { ptr }
%"struct.cofactor_elim_term_ite::imp::cofactor_rw" = type { %class.rewriter_tpl, %"struct.cofactor_elim_term_ite::imp::cofactor_rw_cfg" }
%class.rewriter_tpl = type { %class.rewriter_core, ptr, i32, %class.ptr_vector.31, %class.var_shifter, %class.inv_var_shifter, %class.obj_ref, %class.obj_ref.49, %class.obj_ref.49, %class.svector.17 }
%class.rewriter_core = type { ptr, ptr, i8, i8, %class.ptr_vector.38, ptr, %class.svector.40, %class.ref_vector, %class.ptr_vector.38, ptr, %class.ref_vector.42, %class.obj_hashtable, ptr, i32, %class.svector.47 }
%class.svector.40 = type { %class.vector.41 }
%class.vector.41 = type { ptr }
%class.ptr_vector.38 = type { %class.vector.39 }
%class.vector.39 = type { ptr }
%class.ref_vector.42 = type { %class.ref_vector_core.43 }
%class.ref_vector_core.43 = type { %class.ref_manager_wrapper.44, %class.ptr_vector.45 }
%class.ref_manager_wrapper.44 = type { ptr }
%class.ptr_vector.45 = type { %class.vector.46 }
%class.vector.46 = type { ptr }
%class.svector.47 = type { %class.vector.48 }
%class.vector.48 = type { ptr }
%class.var_shifter = type <{ %class.var_shifter_core, i32, i32, i32, [4 x i8] }>
%class.var_shifter_core = type { %class.rewriter_core }
%class.inv_var_shifter = type <{ %class.var_shifter_core, i32, [4 x i8] }>
%class.obj_ref = type { ptr, ptr }
%class.obj_ref.49 = type { ptr, ptr }
%class.svector.17 = type { %class.vector.18 }
%class.vector.18 = type { ptr }
%"struct.cofactor_elim_term_ite::imp::cofactor_rw_cfg" = type { ptr, ptr, ptr, %class.mk_simplified_app, ptr, i8, ptr, ptr, i8, ptr, i8, ptr }
%class.mk_simplified_app = type { ptr }

; Function Attrs: mustprogress uwtable
define linkonce_odr hidden void @_ZN22cofactor_elim_term_ite3impclEP4exprR7obj_refIS1_11ast_managerE(ptr noundef nonnull align 8 dereferenceable(25) %0, ptr noundef %1, ptr noundef nonnull align 8 dereferenceable(16) %2) #4 comdat align 2 personality ptr @__gxx_personality_v0 {
  %4 = alloca ptr, align 8
  %5 = alloca ptr, align 8
  %6 = alloca ptr, align 8
  %7 = alloca %"struct.cofactor_elim_term_ite::imp::bottom_up_elim", align 8
  %8 = alloca ptr, align 8
  %9 = alloca i32, align 4
  store ptr %0, ptr %4, align 8, !tbaa !19
  store ptr %1, ptr %5, align 8, !tbaa !27
  store ptr %2, ptr %6, align 8, !tbaa !29
  %10 = load ptr, ptr %4, align 8
  call void @llvm.lifetime.start.p0(i64 720, ptr %7) #3
  %11 = getelementptr inbounds nuw %"struct.cofactor_elim_term_ite::imp", ptr %10, i32 0, i32 0
  %12 = load ptr, ptr %11, align 8, !tbaa !31
  call void @_ZN22cofactor_elim_term_ite3imp14bottom_up_elimC2ER11ast_managerRS0_(ptr noundef nonnull align 8 dereferenceable(720) %7, ptr noundef nonnull align 8 dereferenceable(976) %12, ptr noundef nonnull align 8 dereferenceable(25) %10)
  %13 = load ptr, ptr %5, align 8, !tbaa !27
  %14 = load ptr, ptr %6, align 8, !tbaa !29
  invoke void @_ZN22cofactor_elim_term_ite3imp14bottom_up_elimclEP4exprR7obj_refIS2_11ast_managerE(ptr noundef nonnull align 8 dereferenceable(720) %7, ptr noundef %13, ptr noundef nonnull align 8 dereferenceable(16) %14)
          to label %15 unwind label %16

15:                                               ; preds = %3
  call void @_ZN22cofactor_elim_term_ite3imp14bottom_up_elimD2Ev(ptr noundef nonnull align 8 dereferenceable(720) %7) #3
  call void @llvm.lifetime.end.p0(i64 720, ptr %7) #3
  ret void

16:                                               ; preds = %3
  %17 = landingpad { ptr, i32 }
          cleanup
  %18 = extractvalue { ptr, i32 } %17, 0
  store ptr %18, ptr %8, align 8
  %19 = extractvalue { ptr, i32 } %17, 1
  store i32 %19, ptr %9, align 4
  call void @_ZN22cofactor_elim_term_ite3imp14bottom_up_elimD2Ev(ptr noundef nonnull align 8 dereferenceable(720) %7) #3
  call void @llvm.lifetime.end.p0(i64 720, ptr %7) #3
  br label %20

20:                                               ; preds = %16
  %21 = load ptr, ptr %8, align 8
  %22 = load i32, ptr %9, align 4
  %23 = insertvalue { ptr, i32 } poison, ptr %21, 0
  %24 = insertvalue { ptr, i32 } %23, i32 %22, 1
  resume { ptr, i32 } %24
}

; Function Attrs: mustprogress uwtable
define hidden void @_ZN22cofactor_elim_term_iteclEP4exprR7obj_refIS0_11ast_managerE(ptr noundef nonnull align 8 dereferenceable(24) %0, ptr noundef %1, ptr noundef nonnull align 8 dereferenceable(16) %2) #4 align 2 {
  %4 = alloca ptr, align 8
  %5 = alloca ptr, align 8
  %6 = alloca ptr, align 8
  store ptr %0, ptr %4, align 8, !tbaa !3
  store ptr %1, ptr %5, align 8, !tbaa !27
  store ptr %2, ptr %6, align 8, !tbaa !29
  %7 = load ptr, ptr %4, align 8
  %8 = getelementptr inbounds nuw %class.cofactor_elim_term_ite, ptr %7, i32 0, i32 1
  %9 = load ptr, ptr %8, align 8, !tbaa !14
  %10 = load ptr, ptr %5, align 8, !tbaa !27
  %11 = load ptr, ptr %6, align 8, !tbaa !29
  call void @_ZN22cofactor_elim_term_ite3impclEP4exprR7obj_refIS1_11ast_managerE(ptr noundef nonnull align 8 dereferenceable(25) %9, ptr noundef %10, ptr noundef nonnull align 8 dereferenceable(16) %11)
  ret void
}