; Function Attrs: mustprogress uwtable
define hidden void @_ZN22cofactor_elim_term_iteclEP4exprR7obj_refIS0_11ast_managerE(ptr noundef nonnull readonly align 8 captures(none) dereferenceable(24) %0, ptr noundef %1, ptr noundef nonnull align 8 dereferenceable(16) %2) local_unnamed_addr #3 align 2 personality ptr @__gxx_personality_v0 {
  %4 = alloca %"struct.cofactor_elim_term_ite::imp::bottom_up_elim", align 8
  %5 = getelementptr inbounds nuw i8, ptr %0, i64 8
  %6 = load ptr, ptr %5, align 8, !tbaa !17
  call void @llvm.lifetime.start.p0(i64 720, ptr nonnull %4) #18
  %7 = load ptr, ptr %6, align 8, !tbaa !20
  call void @_ZN22cofactor_elim_term_ite3imp14bottom_up_elimC2ER11ast_managerRS0_(ptr noundef nonnull align 8 dereferenceable(720) %4, ptr noundef nonnull align 8 dereferenceable(976) %7, ptr noundef nonnull align 8 dereferenceable(25) %6)
  invoke void @_ZN22cofactor_elim_term_ite3imp14bottom_up_elimclEP4exprR7obj_refIS2_11ast_managerE(ptr noundef nonnull align 8 dereferenceable(720) %4, ptr noundef %1, ptr noundef nonnull align 8 dereferenceable(16) %2)
          to label %_ZN22cofactor_elim_term_ite3impclEP4exprR7obj_refIS1_11ast_managerE.exit unwind label %8

8:                                                ; preds = %3
  %9 = landingpad { ptr, i32 }
          cleanup
  call void @_ZN22cofactor_elim_term_ite3imp14bottom_up_elimD2Ev(ptr noundef nonnull align 8 dereferenceable(720) %4) #18
  call void @llvm.lifetime.end.p0(i64 720, ptr nonnull %4) #18
  resume { ptr, i32 } %9

_ZN22cofactor_elim_term_ite3impclEP4exprR7obj_refIS1_11ast_managerE.exit: ; preds = %3
  call void @_ZN22cofactor_elim_term_ite3imp14bottom_up_elimD2Ev(ptr noundef nonnull align 8 dereferenceable(720) %4) #18
  call void @llvm.lifetime.end.p0(i64 720, ptr nonnull %4) #18
  ret void
}